target datalayout = "e-m:e-p270:32:32-p271:32:32-p272:64:64-i64:64-i128:128-f80:128-n8:16:32:64-S128"
target triple = "x86_64-pc-linux-gnu"

%struct.AVFilterContext = type { ptr, ptr, ptr, ptr, ptr, i32, ptr, ptr, i32, ptr, ptr, i32, i32, ptr, ptr, ptr, ptr, i32, ptr, i32, i32 }
%struct.ColorConstancyContext = type { ptr, i32, i32, double, i32, [4 x i32], [4 x i32], i32, [3 x ptr], [3 x double] }
%struct.AVChannelLayout = type { i32, i32, %union.anon.1, ptr }
%union.anon.1 = type { i64 }
%struct.AVRational = type { i32, i32 }
%struct.ThreadData = type { ptr, ptr, [4 x i32], [4 x [3 x ptr]] }
%struct.AVFrame = type { [8 x ptr], [8 x i32], ptr, i32, i32, i32, i32, i32, %struct.AVRational, i64, i64, %struct.AVRational, i32, ptr, i32, i32, [8 x ptr], ptr, i32, ptr, i32, i32, i32, i32, i32, i32, i32, i64, ptr, i32, ptr, ptr, i64, i64, i64, i64, ptr, %struct.AVChannelLayout, i64 }

; Function Attrs: nounwind uwtable
define internal i32 @filter_slice_grey_edge(ptr noundef %0, ptr noundef %1, i32 noundef %2, i32 noundef %3) #1 {
  %5 = alloca ptr, align 8
  %6 = alloca ptr, align 8
  %7 = alloca i32, align 4
  %8 = alloca i32, align 4
  %9 = alloca ptr, align 8
  %10 = alloca ptr, align 8
  %11 = alloca ptr, align 8
  %12 = alloca i32, align 4
  %13 = alloca i8, align 1
  %14 = alloca i32, align 4
  %15 = alloca i32, align 4
  %16 = alloca i32, align 4
  %17 = alloca i32, align 4
  %18 = alloca i32, align 4
  %19 = alloca i32, align 4
  %20 = alloca ptr, align 8
  %21 = alloca ptr, align 8
  %22 = alloca ptr, align 8
  %23 = alloca i32, align 4
  %24 = alloca i32, align 4
  store ptr %0, ptr %5, align 8, !tbaa !4
  store ptr %1, ptr %6, align 8, !tbaa !71
  store i32 %2, ptr %7, align 4, !tbaa !27
  store i32 %3, ptr %8, align 4, !tbaa !27
  call void @llvm.lifetime.start.p0(i64 8, ptr %9) #9
  %25 = load ptr, ptr %5, align 8, !tbaa !4
  %26 = getelementptr inbounds nuw %struct.AVFilterContext, ptr %25, i32 0, i32 9
  %27 = load ptr, ptr %26, align 8, !tbaa !9
  store ptr %27, ptr %9, align 8, !tbaa !22
  call void @llvm.lifetime.start.p0(i64 8, ptr %10) #9
  %28 = load ptr, ptr %6, align 8, !tbaa !71
  store ptr %28, ptr %10, align 8, !tbaa !67
  call void @llvm.lifetime.start.p0(i64 8, ptr %11) #9
  %29 = load ptr, ptr %10, align 8, !tbaa !67
  %30 = getelementptr inbounds nuw %struct.ThreadData, ptr %29, i32 0, i32 0
  %31 = load ptr, ptr %30, align 8, !tbaa !56
  store ptr %31, ptr %11, align 8, !tbaa !32
  call void @llvm.lifetime.start.p0(i64 4, ptr %12) #9
  %32 = load ptr, ptr %9, align 8, !tbaa !22
  %33 = getelementptr inbounds nuw %struct.ColorConstancyContext, ptr %32, i32 0, i32 2
  %34 = load i32, ptr %33, align 4, !tbaa !59
  store i32 %34, ptr %12, align 4, !tbaa !27
  call void @llvm.lifetime.start.p0(i64 1, ptr %13) #9
  store i8 -1, ptr %13, align 1, !tbaa !76
  call void @llvm.lifetime.start.p0(i64 4, ptr %14) #9
  store i32 0, ptr %14, align 4, !tbaa !27
  br label %35

35:                                               ; preds = %235, %4
  %36 = load i32, ptr %14, align 4, !tbaa !27
  %37 = icmp slt i32 %36, 3
  br i1 %37, label %38, label %238

38:                                               ; preds = %35
  call void @llvm.lifetime.start.p0(i64 4, ptr %15) #9
  %39 = load ptr, ptr %9, align 8, !tbaa !22
  %40 = getelementptr inbounds nuw %struct.ColorConstancyContext, ptr %39, i32 0, i32 5
  %41 = load i32, ptr %14, align 4, !tbaa !27
  %42 = sext i32 %41 to i64
  %43 = getelementptr inbounds [4 x i32], ptr %40, i64 0, i64 %42
  %44 = load i32, ptr %43, align 4, !tbaa !27
  store i32 %44, ptr %15, align 4, !tbaa !27
  call void @llvm.lifetime.start.p0(i64 4, ptr %16) #9
  %45 = load ptr, ptr %9, align 8, !tbaa !22
  %46 = getelementptr inbounds nuw %struct.ColorConstancyContext, ptr %45, i32 0, i32 6
  %47 = load i32, ptr %14, align 4, !tbaa !27
  %48 = sext i32 %47 to i64
  %49 = getelementptr inbounds [4 x i32], ptr %46, i64 0, i64 %48
  %50 = load i32, ptr %49, align 4, !tbaa !27
  store i32 %50, ptr %16, align 4, !tbaa !27
  call void @llvm.lifetime.start.p0(i64 4, ptr %17) #9
  %51 = load ptr, ptr %11, align 8, !tbaa !32
  %52 = getelementptr inbounds nuw %struct.AVFrame, ptr %51, i32 0, i32 1
  %53 = load i32, ptr %14, align 4, !tbaa !27
  %54 = sext i32 %53 to i64
  %55 = getelementptr inbounds [8 x i32], ptr %52, i64 0, i64 %54
  %56 = load i32, ptr %55, align 4, !tbaa !27
  store i32 %56, ptr %17, align 4, !tbaa !27
  call void @llvm.lifetime.start.p0(i64 4, ptr %18) #9
  %57 = load i32, ptr %15, align 4, !tbaa !27
  %58 = load i32, ptr %7, align 4, !tbaa !27
  %59 = mul nsw i32 %57, %58
  %60 = load i32, ptr %8, align 4, !tbaa !27
  %61 = sdiv i32 %59, %60
  store i32 %61, ptr %18, align 4, !tbaa !27
  call void @llvm.lifetime.start.p0(i64 4, ptr %19) #9
  %62 = load i32, ptr %15, align 4, !tbaa !27
  %63 = load i32, ptr %7, align 4, !tbaa !27
  %64 = add nsw i32 %63, 1
  %65 = mul nsw i32 %62, %64
  %66 = load i32, ptr %8, align 4, !tbaa !27
  %67 = sdiv i32 %65, %66
  store i32 %67, ptr %19, align 4, !tbaa !27
  call void @llvm.lifetime.start.p0(i64 8, ptr %20) #9
  %68 = load ptr, ptr %11, align 8, !tbaa !32
  %69 = getelementptr inbounds nuw %struct.AVFrame, ptr %68, i32 0, i32 0
  %70 = load i32, ptr %14, align 4, !tbaa !27
  %71 = sext i32 %70 to i64
  %72 = getelementptr inbounds [8 x ptr], ptr %69, i64 0, i64 %71
  %73 = load ptr, ptr %72, align 8, !tbaa !77
  store ptr %73, ptr %20, align 8, !tbaa !77
  call void @llvm.lifetime.start.p0(i64 8, ptr %21) #9
  %74 = load ptr, ptr %10, align 8, !tbaa !67
  %75 = getelementptr inbounds nuw %struct.ThreadData, ptr %74, i32 0, i32 3
  %76 = getelementptr inbounds [4 x [3 x ptr]], ptr %75, i64 0, i64 1
  %77 = load i32, ptr %14, align 4, !tbaa !27
  %78 = sext i32 %77 to i64
  %79 = getelementptr inbounds [3 x ptr], ptr %76, i64 0, i64 %78
  %80 = load ptr, ptr %79, align 8, !tbaa !60
  store ptr %80, ptr %21, align 8, !tbaa !60
  call void @llvm.lifetime.start.p0(i64 8, ptr %22) #9
  %81 = load ptr, ptr %10, align 8, !tbaa !67
  %82 = getelementptr inbounds nuw %struct.ThreadData, ptr %81, i32 0, i32 3
  %83 = getelementptr inbounds [4 x [3 x ptr]], ptr %82, i64 0, i64 1
  %84 = load i32, ptr %14, align 4, !tbaa !27
  %85 = sext i32 %84 to i64
  %86 = getelementptr inbounds [3 x ptr], ptr %83, i64 0, i64 %85
  %87 = load ptr, ptr %86, align 8, !tbaa !60
  store ptr %87, ptr %22, align 8, !tbaa !60
  call void @llvm.lifetime.start.p0(i64 4, ptr %23) #9
  call void @llvm.lifetime.start.p0(i64 4, ptr %24) #9
  %88 = load ptr, ptr %22, align 8, !tbaa !60
  %89 = load i32, ptr %7, align 4, !tbaa !27
  %90 = sext i32 %89 to i64
  %91 = getelementptr inbounds double, ptr %88, i64 %90
  store double 0.000000e+00, ptr %91, align 8, !tbaa !48
  %92 = load i32, ptr %12, align 4, !tbaa !27
  %93 = icmp ne i32 %92, 0
  br i1 %93, label %181, label %94

94:                                               ; preds = %38
  %95 = load i32, ptr %18, align 4, !tbaa !27
  store i32 %95, ptr %23, align 4, !tbaa !27
  br label %96

96:                                               ; preds = %177, %94
  %97 = load i32, ptr %23, align 4, !tbaa !27
  %98 = load i32, ptr %19, align 4, !tbaa !27
  %99 = icmp slt i32 %97, %98
  br i1 %99, label %100, label %180

100:                                              ; preds = %96
  store i32 0, ptr %24, align 4, !tbaa !27
  br label %101

101:                                              ; preds = %173, %100
  %102 = load i32, ptr %24, align 4, !tbaa !27
  %103 = load i32, ptr %16, align 4, !tbaa !27
  %104 = icmp slt i32 %102, %103
  br i1 %104, label %105, label %176

105:                                              ; preds = %101
  %106 = load ptr, ptr %22, align 8, !tbaa !60
  %107 = load i32, ptr %7, align 4, !tbaa !27
  %108 = sext i32 %107 to i64
  %109 = getelementptr inbounds double, ptr %106, i64 %108
  %110 = load double, ptr %109, align 8, !tbaa !48
  %111 = load ptr, ptr %21, align 8, !tbaa !60
  %112 = load i32, ptr %23, align 4, !tbaa !27
  %113 = load i32, ptr %16, align 4, !tbaa !27
  %114 = mul nsw i32 %112, %113
  %115 = load i32, ptr %24, align 4, !tbaa !27
  %116 = add nsw i32 %114, %115
  %117 = sext i32 %116 to i64
  %118 = getelementptr inbounds double, ptr %111, i64 %117
  %119 = load double, ptr %118, align 8, !tbaa !48
  %120 = call nsz double @llvm.fabs.f64(double %119)
  %121 = load ptr, ptr %20, align 8, !tbaa !77
  %122 = load i32, ptr %23, align 4, !tbaa !27
  %123 = load i32, ptr %17, align 4, !tbaa !27
  %124 = mul nsw i32 %122, %123
  %125 = load i32, ptr %24, align 4, !tbaa !27
  %126 = add nsw i32 %124, %125
  %127 = sext i32 %126 to i64
  %128 = getelementptr inbounds i8, ptr %121, i64 %127
  %129 = load i8, ptr %128, align 1, !tbaa !76
  %130 = zext i8 %129 to i32
  %131 = icmp slt i32 %130, 255
  %132 = zext i1 %131 to i32
  %133 = sitofp i32 %132 to double
  %134 = fmul nsz double %120, %133
  %135 = fcmp nsz ogt double %110, %134
  br i1 %135, label %136, label %142

136:                                              ; preds = %105
  %137 = load ptr, ptr %22, align 8, !tbaa !60
  %138 = load i32, ptr %7, align 4, !tbaa !27
  %139 = sext i32 %138 to i64
  %140 = getelementptr inbounds double, ptr %137, i64 %139
  %141 = load double, ptr %140, align 8, !tbaa !48
  br label %167

142:                                              ; preds = %105
  %143 = load ptr, ptr %21, align 8, !tbaa !60
  %144 = load i32, ptr %23, align 4, !tbaa !27
  %145 = load i32, ptr %16, align 4, !tbaa !27
  %146 = mul nsw i32 %144, %145
  %147 = load i32, ptr %24, align 4, !tbaa !27
  %148 = add nsw i32 %146, %147
  %149 = sext i32 %148 to i64
  %150 = getelementptr inbounds double, ptr %143, i64 %149
  %151 = load double, ptr %150, align 8, !tbaa !48
  %152 = call nsz double @llvm.fabs.f64(double %151)
  %153 = load ptr, ptr %20, align 8, !tbaa !77
  %154 = load i32, ptr %23, align 4, !tbaa !27
  %155 = load i32, ptr %17, align 4, !tbaa !27
  %156 = mul nsw i32 %154, %155
  %157 = load i32, ptr %24, align 4, !tbaa !27
  %158 = add nsw i32 %156, %157
  %159 = sext i32 %158 to i64
  %160 = getelementptr inbounds i8, ptr %153, i64 %159
  %161 = load i8, ptr %160, align 1, !tbaa !76
  %162 = zext i8 %161 to i32
  %163 = icmp slt i32 %162, 255
  %164 = zext i1 %163 to i32
  %165 = sitofp i32 %164 to double
  %166 = fmul nsz double %152, %165
  br label %167

167:                                              ; preds = %142, %136
  %168 = phi nsz double [ %141, %136 ], [ %166, %142 ]
  %169 = load ptr, ptr %22, align 8, !tbaa !60
  %170 = load i32, ptr %7, align 4, !tbaa !27
  %171 = sext i32 %170 to i64
  %172 = getelementptr inbounds double, ptr %169, i64 %171
  store double %168, ptr %172, align 8, !tbaa !48
  br label %173

173:                                              ; preds = %167
  %174 = load i32, ptr %24, align 4, !tbaa !27
  %175 = add nsw i32 %174, 1
  store i32 %175, ptr %24, align 4, !tbaa !27
  br label %101, !llvm.loop !78

176:                                              ; preds = %101
  br label %177

177:                                              ; preds = %176
  %178 = load i32, ptr %23, align 4, !tbaa !27
  %179 = add nsw i32 %178, 1
  store i32 %179, ptr %23, align 4, !tbaa !27
  br label %96, !llvm.loop !79

180:                                              ; preds = %96
  br label %234

181:                                              ; preds = %38
  %182 = load i32, ptr %18, align 4, !tbaa !27
  store i32 %182, ptr %23, align 4, !tbaa !27
  br label %183

183:                                              ; preds = %230, %181
  %184 = load i32, ptr %23, align 4, !tbaa !27
  %185 = load i32, ptr %19, align 4, !tbaa !27
  %186 = icmp slt i32 %184, %185
  br i1 %186, label %187, label %233

187:                                              ; preds = %183
  store i32 0, ptr %24, align 4, !tbaa !27
  br label %188

188:                                              ; preds = %226, %187
  %189 = load i32, ptr %24, align 4, !tbaa !27
  %190 = load i32, ptr %16, align 4, !tbaa !27
  %191 = icmp slt i32 %189, %190
  br i1 %191, label %192, label %229

192:                                              ; preds = %188
  %193 = load ptr, ptr %21, align 8, !tbaa !60
  %194 = load i32, ptr %23, align 4, !tbaa !27
  %195 = load i32, ptr %16, align 4, !tbaa !27
  %196 = mul nsw i32 %194, %195
  %197 = load i32, ptr %24, align 4, !tbaa !27
  %198 = add nsw i32 %196, %197
  %199 = sext i32 %198 to i64
  %200 = getelementptr inbounds double, ptr %193, i64 %199
  %201 = load double, ptr %200, align 8, !tbaa !48
  %202 = fdiv nsz double %201, 2.550000e+02
  %203 = call nsz double @llvm.fabs.f64(double %202)
  %204 = load i32, ptr %12, align 4, !tbaa !27
  %205 = sitofp i32 %204 to double
  %206 = call nsz double @llvm.pow.f64(double %203, double %205)
  %207 = load ptr, ptr %20, align 8, !tbaa !77
  %208 = load i32, ptr %23, align 4, !tbaa !27
  %209 = load i32, ptr %17, align 4, !tbaa !27
  %210 = mul nsw i32 %208, %209
  %211 = load i32, ptr %24, align 4, !tbaa !27
  %212 = add nsw i32 %210, %211
  %213 = sext i32 %212 to i64
  %214 = getelementptr inbounds i8, ptr %207, i64 %213
  %215 = load i8, ptr %214, align 1, !tbaa !76
  %216 = zext i8 %215 to i32
  %217 = icmp slt i32 %216, 255
  %218 = zext i1 %217 to i32
  %219 = sitofp i32 %218 to double
  %220 = load ptr, ptr %22, align 8, !tbaa !60
  %221 = load i32, ptr %7, align 4, !tbaa !27
  %222 = sext i32 %221 to i64
  %223 = getelementptr inbounds double, ptr %220, i64 %222
  %224 = load double, ptr %223, align 8, !tbaa !48
  %225 = call nsz double @llvm.fmuladd.f64(double %206, double %219, double %224)
  store double %225, ptr %223, align 8, !tbaa !48
  br label %226

226:                                              ; preds = %192
  %227 = load i32, ptr %24, align 4, !tbaa !27
  %228 = add nsw i32 %227, 1
  store i32 %228, ptr %24, align 4, !tbaa !27
  br label %188, !llvm.loop !80

229:                                              ; preds = %188
  br label %230

230:                                              ; preds = %229
  %231 = load i32, ptr %23, align 4, !tbaa !27
  %232 = add nsw i32 %231, 1
  store i32 %232, ptr %23, align 4, !tbaa !27
  br label %183, !llvm.loop !81

233:                                              ; preds = %183
  br label %234

234:                                              ; preds = %233, %180
  call void @llvm.lifetime.end.p0(i64 4, ptr %24) #9
  call void @llvm.lifetime.end.p0(i64 4, ptr %23) #9
  call void @llvm.lifetime.end.p0(i64 8, ptr %22) #9
  call void @llvm.lifetime.end.p0(i64 8, ptr %21) #9
  call void @llvm.lifetime.end.p0(i64 8, ptr %20) #9
  call void @llvm.lifetime.end.p0(i64 4, ptr %19) #9
  call void @llvm.lifetime.end.p0(i64 4, ptr %18) #9
  call void @llvm.lifetime.end.p0(i64 4, ptr %17) #9
  call void @llvm.lifetime.end.p0(i64 4, ptr %16) #9
  call void @llvm.lifetime.end.p0(i64 4, ptr %15) #9
  br label %235

235:                                              ; preds = %234
  %236 = load i32, ptr %14, align 4, !tbaa !27
  %237 = add nsw i32 %236, 1
  store i32 %237, ptr %14, align 4, !tbaa !27
  br label %35, !llvm.loop !82

238:                                              ; preds = %35
  call void @llvm.lifetime.end.p0(i64 4, ptr %14) #9
  call void @llvm.lifetime.end.p0(i64 1, ptr %13) #9
  call void @llvm.lifetime.end.p0(i64 4, ptr %12) #9
  call void @llvm.lifetime.end.p0(i64 8, ptr %11) #9
  call void @llvm.lifetime.end.p0(i64 8, ptr %10) #9
  call void @llvm.lifetime.end.p0(i64 8, ptr %9) #9
  ret i32 0
}