; Function Attrs: nofree norecurse nosync nounwind memory(readwrite, inaccessiblemem: none) uwtable
define internal noundef i32 @filter_slice_grey_edge(ptr noundef readonly captures(none) %0, ptr noundef readonly captures(none) %1, i32 noundef %2, i32 noundef %3) #4 {
  %5 = getelementptr inbounds nuw i8, ptr %0, i64 72
  %6 = load ptr, ptr %5, align 8, !tbaa !4
  %7 = load ptr, ptr %1, align 8, !tbaa !42
  %8 = getelementptr inbounds nuw i8, ptr %6, i64 12
  %9 = load i32, ptr %8, align 4, !tbaa !39
  %10 = getelementptr inbounds nuw i8, ptr %6, i64 28
  %11 = getelementptr inbounds nuw i8, ptr %6, i64 44
  %12 = getelementptr inbounds nuw i8, ptr %7, i64 64
  %13 = add nsw i32 %2, 1
  %14 = getelementptr inbounds nuw i8, ptr %1, i64 56
  %15 = sext i32 %2 to i64
  %.not = icmp eq i32 %9, 0
  %16 = sitofp i32 %9 to double
  br i1 %.not, label %.preheader82.us, label %.preheader83

.preheader82.us:                                  ; preds = %4, %.loopexit.us
  %indvars.iv125 = phi i64 [ %indvars.iv.next126, %.loopexit.us ], [ 0, %4 ]
  %17 = getelementptr inbounds nuw [4 x i32], ptr %10, i64 0, i64 %indvars.iv125
  %18 = load i32, ptr %17, align 4, !tbaa !40
  %19 = getelementptr inbounds nuw [4 x i32], ptr %11, i64 0, i64 %indvars.iv125
  %20 = load i32, ptr %19, align 4, !tbaa !40
  %21 = getelementptr inbounds nuw [8 x i32], ptr %12, i64 0, i64 %indvars.iv125
  %22 = load i32, ptr %21, align 4, !tbaa !40
  %23 = mul nsw i32 %18, %2
  %24 = sdiv i32 %23, %3
  %25 = mul nsw i32 %18, %13
  %26 = sdiv i32 %25, %3
  %27 = getelementptr inbounds nuw [8 x ptr], ptr %7, i64 0, i64 %indvars.iv125
  %28 = load ptr, ptr %27, align 8, !tbaa !79
  %29 = getelementptr inbounds nuw [3 x ptr], ptr %14, i64 0, i64 %indvars.iv125
  %30 = load ptr, ptr %29, align 8, !tbaa !44
  %31 = getelementptr inbounds double, ptr %30, i64 %15
  store double 0.000000e+00, ptr %31, align 8, !tbaa !51
  %32 = icmp slt i32 %24, %26
  %33 = icmp sgt i32 %20, 0
  %or.cond = select i1 %32, i1 %33, i1 false
  br i1 %or.cond, label %.preheader.lr.ph.split.us.us, label %.loopexit.us

.loopexit.us:                                     ; preds = %._crit_edge.us92.us, %.preheader82.us
  %indvars.iv.next126 = add nuw nsw i64 %indvars.iv125, 1
  %exitcond128.not = icmp eq i64 %indvars.iv.next126, 3
  br i1 %exitcond128.not, label %.split101.us, label %.preheader82.us, !llvm.loop !80

.preheader.lr.ph.split.us.us:                     ; preds = %.preheader82.us
  %34 = sext i32 %24 to i64
  %35 = zext nneg i32 %20 to i64
  %36 = sext i32 %22 to i64
  %wide.trip.count123 = sext i32 %26 to i64
  %wide.trip.count118 = zext nneg i32 %20 to i64
  br label %.preheader.us.us

.preheader.us.us:                                 ; preds = %._crit_edge.us92.us, %.preheader.lr.ph.split.us.us
  %indvars.iv120 = phi i64 [ %indvars.iv.next121, %._crit_edge.us92.us ], [ %34, %.preheader.lr.ph.split.us.us ]
  %.promoted89.us94.us = phi double [ %..us.us, %._crit_edge.us92.us ], [ 0.000000e+00, %.preheader.lr.ph.split.us.us ]
  %37 = mul nsw i64 %indvars.iv120, %35
  %38 = mul nsw i64 %indvars.iv120, %36
  %invariant.gep132 = getelementptr double, ptr %30, i64 %37
  %invariant.gep134 = getelementptr i8, ptr %28, i64 %38
  br label %39

39:                                               ; preds = %39, %.preheader.us.us
  %indvars.iv115 = phi i64 [ %indvars.iv.next116, %39 ], [ 0, %.preheader.us.us ]
  %.90.us.us = phi double [ %..us.us, %39 ], [ %.promoted89.us94.us, %.preheader.us.us ]
  %gep133 = getelementptr double, ptr %invariant.gep132, i64 %indvars.iv115
  %40 = load double, ptr %gep133, align 8, !tbaa !51
  %41 = tail call nsz double @llvm.fabs.f64(double %40)
  %gep135 = getelementptr i8, ptr %invariant.gep134, i64 %indvars.iv115
  %42 = load i8, ptr %gep135, align 1, !tbaa !81
  %43 = icmp ne i8 %42, -1
  %44 = uitofp i1 %43 to double
  %45 = fmul nsz double %41, %44
  %46 = fcmp nsz ogt double %.90.us.us, %45
  %..us.us = select nsz i1 %46, double %.90.us.us, double %45
  store double %..us.us, ptr %31, align 8, !tbaa !51
  %indvars.iv.next116 = add nuw nsw i64 %indvars.iv115, 1
  %exitcond119.not = icmp eq i64 %indvars.iv.next116, %wide.trip.count118
  br i1 %exitcond119.not, label %._crit_edge.us92.us, label %39, !llvm.loop !82

._crit_edge.us92.us:                              ; preds = %39
  %indvars.iv.next121 = add nsw i64 %indvars.iv120, 1
  %exitcond124.not = icmp eq i64 %indvars.iv.next121, %wide.trip.count123
  br i1 %exitcond124.not, label %.loopexit.us, label %.preheader.us.us, !llvm.loop !83

.preheader83:                                     ; preds = %4, %.loopexit84
  %indvars.iv111 = phi i64 [ %indvars.iv.next112, %.loopexit84 ], [ 0, %4 ]
  %47 = getelementptr inbounds nuw [4 x i32], ptr %10, i64 0, i64 %indvars.iv111
  %48 = load i32, ptr %47, align 4, !tbaa !40
  %49 = getelementptr inbounds nuw [4 x i32], ptr %11, i64 0, i64 %indvars.iv111
  %50 = load i32, ptr %49, align 4, !tbaa !40
  %51 = getelementptr inbounds nuw [8 x i32], ptr %12, i64 0, i64 %indvars.iv111
  %52 = load i32, ptr %51, align 4, !tbaa !40
  %53 = mul nsw i32 %48, %2
  %54 = sdiv i32 %53, %3
  %55 = mul nsw i32 %48, %13
  %56 = sdiv i32 %55, %3
  %57 = getelementptr inbounds nuw [8 x ptr], ptr %7, i64 0, i64 %indvars.iv111
  %58 = load ptr, ptr %57, align 8, !tbaa !79
  %59 = getelementptr inbounds nuw [3 x ptr], ptr %14, i64 0, i64 %indvars.iv111
  %60 = load ptr, ptr %59, align 8, !tbaa !44
  %61 = getelementptr inbounds double, ptr %60, i64 %15
  store double 0.000000e+00, ptr %61, align 8, !tbaa !51
  %62 = icmp slt i32 %54, %56
  %63 = icmp sgt i32 %50, 0
  %or.cond136 = select i1 %62, i1 %63, i1 false
  br i1 %or.cond136, label %.preheader81.lr.ph.split.us, label %.loopexit84

.preheader81.lr.ph.split.us:                      ; preds = %.preheader83
  %64 = sext i32 %54 to i64
  %65 = zext nneg i32 %50 to i64
  %66 = sext i32 %52 to i64
  %wide.trip.count109 = sext i32 %56 to i64
  %wide.trip.count = zext nneg i32 %50 to i64
  br label %.preheader81.us

.preheader81.us:                                  ; preds = %._crit_edge.us, %.preheader81.lr.ph.split.us
  %indvars.iv106 = phi i64 [ %indvars.iv.next107, %._crit_edge.us ], [ %64, %.preheader81.lr.ph.split.us ]
  %.promoted.us87 = phi double [ %78, %._crit_edge.us ], [ 0.000000e+00, %.preheader81.lr.ph.split.us ]
  %67 = mul nsw i64 %indvars.iv106, %65
  %68 = mul nsw i64 %indvars.iv106, %66
  %invariant.gep = getelementptr double, ptr %60, i64 %67
  %invariant.gep130 = getelementptr i8, ptr %58, i64 %68
  br label %69

69:                                               ; preds = %.preheader81.us, %69
  %indvars.iv = phi i64 [ 0, %.preheader81.us ], [ %indvars.iv.next, %69 ]
  %70 = phi double [ %.promoted.us87, %.preheader81.us ], [ %78, %69 ]
  %gep = getelementptr double, ptr %invariant.gep, i64 %indvars.iv
  %71 = load double, ptr %gep, align 8, !tbaa !51
  %72 = fdiv nsz double %71, 2.550000e+02
  %73 = tail call nsz double @llvm.fabs.f64(double %72)
  %74 = tail call nsz double @llvm.pow.f64(double %73, double %16)
  %gep131 = getelementptr i8, ptr %invariant.gep130, i64 %indvars.iv
  %75 = load i8, ptr %gep131, align 1, !tbaa !81
  %76 = icmp ne i8 %75, -1
  %77 = uitofp i1 %76 to double
  %78 = tail call nsz double @llvm.fmuladd.f64(double %74, double %77, double %70)
  store double %78, ptr %61, align 8, !tbaa !51
  %indvars.iv.next = add nuw nsw i64 %indvars.iv, 1
  %exitcond.not = icmp eq i64 %indvars.iv.next, %wide.trip.count
  br i1 %exitcond.not, label %._crit_edge.us, label %69, !llvm.loop !84

._crit_edge.us:                                   ; preds = %69
  %indvars.iv.next107 = add nsw i64 %indvars.iv106, 1
  %exitcond110.not = icmp eq i64 %indvars.iv.next107, %wide.trip.count109
  br i1 %exitcond110.not, label %.loopexit84, label %.preheader81.us, !llvm.loop !85

.loopexit84:                                      ; preds = %._crit_edge.us, %.preheader83
  %indvars.iv.next112 = add nuw nsw i64 %indvars.iv111, 1
  %exitcond114.not = icmp eq i64 %indvars.iv.next112, 3
  br i1 %exitcond114.not, label %.split101.us, label %.preheader83, !llvm.loop !80

.split101.us:                                     ; preds = %.loopexit84, %.loopexit.us
  ret i32 0
}